target datalayout = "e-m:e-p270:32:32-p271:32:32-p272:64:64-i64:64-i128:128-f80:128-n8:16:32:64-S128"
target triple = "x86_64-pc-linux-gnu"

%class.AbsSeq = type { ptr, i32, double, double, double, double, double }
%"struct.ZStatHeap::ZAtInitialize" = type { i64, i64 }
%class.ZLock = type { %class.PlatformMutex }
%class.PlatformMutex = type { %union.pthread_mutex_t }
%union.pthread_mutex_t = type { %struct.__pthread_mutex_s }
%struct.__pthread_mutex_s = type { i32, i32, i32, i32, i32, i16, i16, %struct.__pthread_internal_list }
%struct.__pthread_internal_list = type { ptr, ptr }
%class.ZStatHeap = type { %class.ZLock, %"struct.ZStatHeap::ZAtGenerationCollectionStart", %"struct.ZStatHeap::ZAtMarkStart", %"struct.ZStatHeap::ZAtMarkEnd", %"struct.ZStatHeap::ZAtRelocateStart", %"struct.ZStatHeap::ZAtRelocateEnd", %class.NumberSeq }
%"struct.ZStatHeap::ZAtGenerationCollectionStart" = type { i64, i64, i64, i64, i64 }
%"struct.ZStatHeap::ZAtMarkStart" = type { i64, i64, i64, i64, i64, i64 }
%"struct.ZStatHeap::ZAtMarkEnd" = type { i64, i64, i64, i64, i64, i64, i64, i64 }
%"struct.ZStatHeap::ZAtRelocateStart" = type { i64, i64, i64, i64, i64, i64, i64, i64, i64, i64, i64 }
%"struct.ZStatHeap::ZAtRelocateEnd" = type { i64, i64, i64, i64, i64, i64, i64, i64, i64, i64, i64, i64, i64, i64, i64, i64, i64 }
%class.NumberSeq = type { %class.AbsSeq, double, double }
%class.ZLocker = type { ptr }
%class.ZPageAllocatorStats = type { i64, i64, i64, i64, i64, i64, i64, i64, i64, i64, i64, i64 }

@_ZN9ZStatHeap14_at_initializeE = hidden global %"struct.ZStatHeap::ZAtInitialize" zeroinitializer, align 8

; Function Attrs: mustprogress nounwind uwtable
define linkonce_odr hidden noundef ptr @_ZN13PlatformMutex5mutexEv(ptr noundef nonnull align 8 dereferenceable(40) %0) #1 comdat align 2 {
  %2 = alloca ptr, align 8
  store ptr %0, ptr %2, align 8
  %3 = load ptr, ptr %2, align 8
  %4 = getelementptr inbounds %class.PlatformMutex, ptr %3, i32 0, i32 0
  ret ptr %4
}

; Function Attrs: mustprogress nounwind uwtable
define linkonce_odr hidden void @_ZN13PlatformMutex6unlockEv(ptr noundef nonnull align 8 dereferenceable(40) %0) #1 comdat align 2 {
  %2 = alloca ptr, align 8
  %3 = alloca i32, align 4
  store ptr %0, ptr %2, align 8
  %4 = load ptr, ptr %2, align 8
  %5 = call noundef ptr @_ZN13PlatformMutex5mutexEv(ptr noundef nonnull align 8 dereferenceable(40) %4)
  %6 = call i32 @pthread_mutex_unlock(ptr noundef %5) #5
  store i32 %6, ptr %3, align 4
  ret void
}

; Function Attrs: mustprogress nounwind uwtable
define linkonce_odr hidden void @_ZN13PlatformMutex4lockEv(ptr noundef nonnull align 8 dereferenceable(40) %0) #1 comdat align 2 {
  %2 = alloca ptr, align 8
  %3 = alloca i32, align 4
  store ptr %0, ptr %2, align 8
  %4 = load ptr, ptr %2, align 8
  %5 = call noundef ptr @_ZN13PlatformMutex5mutexEv(ptr noundef nonnull align 8 dereferenceable(40) %4)
  %6 = call i32 @pthread_mutex_lock(ptr noundef %5) #5
  store i32 %6, ptr %3, align 4
  ret void
}

; Function Attrs: mustprogress nounwind uwtable
define linkonce_odr hidden void @_ZN5ZLock6unlockEv(ptr noundef nonnull align 8 dereferenceable(40) %0) #1 comdat align 2 {
  %2 = alloca ptr, align 8
  store ptr %0, ptr %2, align 8
  %3 = load ptr, ptr %2, align 8
  %4 = getelementptr inbounds %class.ZLock, ptr %3, i32 0, i32 0
  call void @_ZN13PlatformMutex6unlockEv(ptr noundef nonnull align 8 dereferenceable(40) %4)
  ret void
}

; Function Attrs: mustprogress nounwind uwtable
define linkonce_odr hidden void @_ZN5ZLock4lockEv(ptr noundef nonnull align 8 dereferenceable(40) %0) #1 comdat align 2 {
  %2 = alloca ptr, align 8
  store ptr %0, ptr %2, align 8
  %3 = load ptr, ptr %2, align 8
  %4 = getelementptr inbounds %class.ZLock, ptr %3, i32 0, i32 0
  call void @_ZN13PlatformMutex4lockEv(ptr noundef nonnull align 8 dereferenceable(40) %4)
  ret void
}

; Function Attrs: mustprogress nounwind uwtable
define linkonce_odr hidden void @_ZN7ZLockerI5ZLockED2Ev(ptr noundef nonnull align 8 dereferenceable(8) %0) unnamed_addr #1 comdat align 2 {
  %2 = alloca ptr, align 8
  store ptr %0, ptr %2, align 8
  %3 = load ptr, ptr %2, align 8
  %4 = getelementptr inbounds %class.ZLocker, ptr %3, i32 0, i32 0
  %5 = load ptr, ptr %4, align 8
  %6 = icmp ne ptr %5, null
  br i1 %6, label %7, label %10

7:                                                ; preds = %1
  %8 = getelementptr inbounds %class.ZLocker, ptr %3, i32 0, i32 0
  %9 = load ptr, ptr %8, align 8
  call void @_ZN5ZLock6unlockEv(ptr noundef nonnull align 8 dereferenceable(40) %9)
  br label %10

10:                                               ; preds = %7, %1
  ret void
}

; Function Attrs: mustprogress nounwind uwtable
define linkonce_odr hidden noundef i64 @_ZNK19ZPageAllocatorStats17allocation_stallsEv(ptr noundef nonnull align 8 dereferenceable(96) %0) #1 comdat align 2 {
  %2 = alloca ptr, align 8
  store ptr %0, ptr %2, align 8
  %3 = load ptr, ptr %2, align 8
  %4 = getelementptr inbounds %class.ZPageAllocatorStats, ptr %3, i32 0, i32 11
  %5 = load i64, ptr %4, align 8
  ret i64 %5
}

; Function Attrs: mustprogress nounwind uwtable
define hidden noundef i64 @_ZNK9ZStatHeap17mutator_allocatedEmmm(ptr noundef nonnull align 8 dereferenceable(488) %0, i64 noundef %1, i64 noundef %2, i64 noundef %3) #1 align 2 {
  %5 = alloca ptr, align 8
  %6 = alloca i64, align 8
  %7 = alloca i64, align 8
  %8 = alloca i64, align 8
  %9 = alloca i64, align 8
  store ptr %0, ptr %5, align 8
  store i64 %1, ptr %6, align 8
  store i64 %2, ptr %7, align 8
  store i64 %3, ptr %8, align 8
  %10 = load ptr, ptr %5, align 8
  %11 = load i64, ptr %6, align 8
  %12 = getelementptr inbounds %class.ZStatHeap, ptr %10, i32 0, i32 2
  %13 = getelementptr inbounds %"struct.ZStatHeap::ZAtMarkStart", ptr %12, i32 0, i32 4
  %14 = load i64, ptr %13, align 8
  %15 = sub i64 %11, %14
  store i64 %15, ptr %9, align 8
  %16 = load i64, ptr %9, align 8
  %17 = load i64, ptr %7, align 8
  %18 = add i64 %16, %17
  %19 = load i64, ptr %8, align 8
  %20 = sub i64 %18, %19
  ret i64 %20
}

; Function Attrs: mustprogress nounwind uwtable
define linkonce_odr hidden noundef i64 @_ZNK19ZPageAllocatorStats15used_generationEv(ptr noundef nonnull align 8 dereferenceable(96) %0) #1 comdat align 2 {
  %2 = alloca ptr, align 8
  store ptr %0, ptr %2, align 8
  %3 = load ptr, ptr %2, align 8
  %4 = getelementptr inbounds %class.ZPageAllocatorStats, ptr %3, i32 0, i32 7
  %5 = load i64, ptr %4, align 8
  ret i64 %5
}

; Function Attrs: mustprogress nounwind uwtable
define hidden noundef i64 @_ZNK9ZStatHeap4freeEm(ptr noundef nonnull align 8 dereferenceable(488) %0, i64 noundef %1) #1 align 2 {
  %3 = alloca ptr, align 8
  %4 = alloca i64, align 8
  store ptr %0, ptr %3, align 8
  store i64 %1, ptr %4, align 8
  %5 = load i64, ptr getelementptr inbounds (%"struct.ZStatHeap::ZAtInitialize", ptr @_ZN9ZStatHeap14_at_initializeE, i32 0, i32 1), align 8
  %6 = load i64, ptr %4, align 8
  %7 = sub i64 %5, %6
  ret i64 %7
}

; Function Attrs: mustprogress nounwind uwtable
define linkonce_odr hidden noundef i64 @_ZNK19ZPageAllocatorStats4usedEv(ptr noundef nonnull align 8 dereferenceable(96) %0) #1 comdat align 2 {
  %2 = alloca ptr, align 8
  store ptr %0, ptr %2, align 8
  %3 = load ptr, ptr %2, align 8
  %4 = getelementptr inbounds %class.ZPageAllocatorStats, ptr %3, i32 0, i32 4
  %5 = load i64, ptr %4, align 8
  ret i64 %5
}

; Function Attrs: mustprogress nounwind uwtable
define linkonce_odr hidden noundef i64 @_ZNK19ZPageAllocatorStats8capacityEv(ptr noundef nonnull align 8 dereferenceable(96) %0) #1 comdat align 2 {
  %2 = alloca ptr, align 8
  store ptr %0, ptr %2, align 8
  %3 = load ptr, ptr %2, align 8
  %4 = getelementptr inbounds %class.ZPageAllocatorStats, ptr %3, i32 0, i32 3
  %5 = load i64, ptr %4, align 8
  ret i64 %5
}

; Function Attrs: mustprogress nounwind uwtable
define linkonce_odr hidden void @_ZN7ZLockerI5ZLockEC2EPS0_(ptr noundef nonnull align 8 dereferenceable(8) %0, ptr noundef %1) unnamed_addr #1 comdat align 2 {
  %3 = alloca ptr, align 8
  %4 = alloca ptr, align 8
  store ptr %0, ptr %3, align 8
  store ptr %1, ptr %4, align 8
  %5 = load ptr, ptr %3, align 8
  %6 = getelementptr inbounds %class.ZLocker, ptr %5, i32 0, i32 0
  %7 = load ptr, ptr %4, align 8
  store ptr %7, ptr %6, align 8
  %8 = getelementptr inbounds %class.ZLocker, ptr %5, i32 0, i32 0
  %9 = load ptr, ptr %8, align 8
  %10 = icmp ne ptr %9, null
  br i1 %10, label %11, label %14

11:                                               ; preds = %2
  %12 = getelementptr inbounds %class.ZLocker, ptr %5, i32 0, i32 0
  %13 = load ptr, ptr %12, align 8
  call void @_ZN5ZLock4lockEv(ptr noundef nonnull align 8 dereferenceable(40) %13)
  br label %14

14:                                               ; preds = %11, %2
  ret void
}

; Function Attrs: mustprogress nounwind uwtable
define hidden void @_ZN9ZStatHeap11at_mark_endERK19ZPageAllocatorStats(ptr noundef nonnull align 8 dereferenceable(488) %0, ptr noundef nonnull align 8 dereferenceable(96) %1) #1 align 2 {
  %3 = alloca ptr, align 8
  %4 = alloca ptr, align 8
  %5 = alloca %class.ZLocker, align 8
  store ptr %0, ptr %3, align 8
  store ptr %1, ptr %4, align 8
  %6 = load ptr, ptr %3, align 8
  %7 = getelementptr inbounds %class.ZStatHeap, ptr %6, i32 0, i32 0
  call void @_ZN7ZLockerI5ZLockEC2EPS0_(ptr noundef nonnull align 8 dereferenceable(8) %5, ptr noundef %7)
  %8 = load ptr, ptr %4, align 8
  %9 = call noundef i64 @_ZNK19ZPageAllocatorStats8capacityEv(ptr noundef nonnull align 8 dereferenceable(96) %8)
  %10 = getelementptr inbounds %class.ZStatHeap, ptr %6, i32 0, i32 3
  %11 = getelementptr inbounds %"struct.ZStatHeap::ZAtMarkEnd", ptr %10, i32 0, i32 0
  store i64 %9, ptr %11, align 8
  %12 = load ptr, ptr %4, align 8
  %13 = call noundef i64 @_ZNK19ZPageAllocatorStats4usedEv(ptr noundef nonnull align 8 dereferenceable(96) %12)
  %14 = call noundef i64 @_ZNK9ZStatHeap4freeEm(ptr noundef nonnull align 8 dereferenceable(488) %6, i64 noundef %13)
  %15 = getelementptr inbounds %class.ZStatHeap, ptr %6, i32 0, i32 3
  %16 = getelementptr inbounds %"struct.ZStatHeap::ZAtMarkEnd", ptr %15, i32 0, i32 1
  store i64 %14, ptr %16, align 8
  %17 = load ptr, ptr %4, align 8
  %18 = call noundef i64 @_ZNK19ZPageAllocatorStats4usedEv(ptr noundef nonnull align 8 dereferenceable(96) %17)
  %19 = getelementptr inbounds %class.ZStatHeap, ptr %6, i32 0, i32 3
  %20 = getelementptr inbounds %"struct.ZStatHeap::ZAtMarkEnd", ptr %19, i32 0, i32 2
  store i64 %18, ptr %20, align 8
  %21 = load ptr, ptr %4, align 8
  %22 = call noundef i64 @_ZNK19ZPageAllocatorStats15used_generationEv(ptr noundef nonnull align 8 dereferenceable(96) %21)
  %23 = getelementptr inbounds %class.ZStatHeap, ptr %6, i32 0, i32 3
  %24 = getelementptr inbounds %"struct.ZStatHeap::ZAtMarkEnd", ptr %23, i32 0, i32 3
  store i64 %22, ptr %24, align 8
  %25 = load ptr, ptr %4, align 8
  %26 = call noundef i64 @_ZNK19ZPageAllocatorStats15used_generationEv(ptr noundef nonnull align 8 dereferenceable(96) %25)
  %27 = call noundef i64 @_ZNK9ZStatHeap17mutator_allocatedEmmm(ptr noundef nonnull align 8 dereferenceable(488) %6, i64 noundef %26, i64 noundef 0, i64 noundef 0)
  %28 = getelementptr inbounds %class.ZStatHeap, ptr %6, i32 0, i32 3
  %29 = getelementptr inbounds %"struct.ZStatHeap::ZAtMarkEnd", ptr %28, i32 0, i32 6
  store i64 %27, ptr %29, align 8
  %30 = load ptr, ptr %4, align 8
  %31 = call noundef i64 @_ZNK19ZPageAllocatorStats17allocation_stallsEv(ptr noundef nonnull align 8 dereferenceable(96) %30)
  %32 = getelementptr inbounds %class.ZStatHeap, ptr %6, i32 0, i32 3
  %33 = getelementptr inbounds %"struct.ZStatHeap::ZAtMarkEnd", ptr %32, i32 0, i32 7
  store i64 %31, ptr %33, align 8
  call void @_ZN7ZLockerI5ZLockED2Ev(ptr noundef nonnull align 8 dereferenceable(8) %5) #5
  ret void
}