; Function Attrs: mustprogress nounwind uwtable
define hidden void @_ZN9ZStatHeap11at_mark_endERK19ZPageAllocatorStats(ptr noundef nonnull align 8 dereferenceable(488) %0, ptr nocapture noundef nonnull readonly align 8 dereferenceable(96) %1) local_unnamed_addr #0 align 2 {
_ZN7ZLockerI5ZLockED2Ev.exit:
  %2 = tail call i32 @pthread_mutex_lock(ptr noundef nonnull %0) #20
  %3 = getelementptr inbounds i8, ptr %1, i64 24
  %4 = load i64, ptr %3, align 8
  %5 = getelementptr inbounds i8, ptr %0, i64 128
  store i64 %4, ptr %5, align 8
  %6 = getelementptr inbounds i8, ptr %1, i64 32
  %7 = load i64, ptr %6, align 8
  %8 = load i64, ptr getelementptr inbounds (i8, ptr @_ZN9ZStatHeap14_at_initializeE, i64 8), align 8
  %9 = sub i64 %8, %7
  %10 = getelementptr inbounds i8, ptr %0, i64 136
  store i64 %9, ptr %10, align 8
  %11 = load i64, ptr %6, align 8
  %12 = getelementptr inbounds i8, ptr %0, i64 144
  store i64 %11, ptr %12, align 8
  %13 = getelementptr inbounds i8, ptr %1, i64 56
  %14 = load i64, ptr %13, align 8
  %15 = getelementptr inbounds i8, ptr %0, i64 152
  store i64 %14, ptr %15, align 8
  %16 = getelementptr inbounds i8, ptr %0, i64 112
  %17 = load i64, ptr %16, align 8
  %18 = sub i64 %14, %17
  %19 = getelementptr inbounds i8, ptr %0, i64 176
  store i64 %18, ptr %19, align 8
  %20 = getelementptr inbounds i8, ptr %1, i64 88
  %21 = load i64, ptr %20, align 8
  %22 = getelementptr inbounds i8, ptr %0, i64 184
  store i64 %21, ptr %22, align 8
  %23 = tail call i32 @pthread_mutex_unlock(ptr noundef nonnull %0) #20
  ret void
}